target datalayout = "e-m:e-p270:32:32-p271:32:32-p272:64:64-i64:64-i128:128-f80:128-n8:16:32:64-S128"
target triple = "x86_64-pc-linux-gnu"

%struct._fmt_data = type { ptr, i32, ptr, i32, i8, i8 }

@.str.30 = private unnamed_addr constant [2 x i8] c",\00", align 1

; Function Attrs: null_pointer_is_valid sspstrong uwtable
define internal zeroext i1 @prefs_is_column_fmt_visible(ptr noundef %0, ptr noundef %1) #1 {
  %3 = alloca i1, align 1
  %4 = alloca ptr, align 8
  %5 = alloca ptr, align 8
  %6 = alloca ptr, align 8
  %7 = alloca ptr, align 8
  %8 = alloca %struct._fmt_data, align 8
  %9 = alloca i32, align 4
  store ptr %0, ptr %4, align 8
  store ptr %1, ptr %5, align 8
  call void @llvm.lifetime.start.p0(i64 8, ptr %6) #17
  call void @llvm.lifetime.start.p0(i64 8, ptr %7) #17
  call void @llvm.lifetime.start.p0(i64 32, ptr %8) #17
  %10 = load ptr, ptr %4, align 8
  %11 = icmp ne ptr %10, null
  br i1 %11, label %12, label %85

12:                                               ; preds = %2
  %13 = load ptr, ptr %4, align 8
  %14 = call noalias ptr @g_strdup(ptr noundef %13)
  store ptr %14, ptr %7, align 8
  %15 = load ptr, ptr %7, align 8
  %16 = call ptr @strtok(ptr noundef %15, ptr noundef @.str.30) #17
  store ptr %16, ptr %6, align 8
  br label %17

17:                                               ; preds = %81, %12
  %18 = load ptr, ptr %6, align 8
  %19 = icmp ne ptr %18, null
  br i1 %19, label %20, label %83

20:                                               ; preds = %17
  %21 = load ptr, ptr %6, align 8
  %22 = call ptr @g_strchug(ptr noundef %21)
  %23 = call ptr @g_strchomp(ptr noundef %22)
  store ptr %23, ptr %6, align 8
  %24 = load ptr, ptr %6, align 8
  %25 = call zeroext i1 @parse_column_format(ptr noundef %8, ptr noundef %24)
  br i1 %25, label %27, label %26

26:                                               ; preds = %20
  br label %81

27:                                               ; preds = %20
  %28 = load ptr, ptr %5, align 8
  %29 = getelementptr inbounds nuw %struct._fmt_data, ptr %28, i32 0, i32 1
  %30 = load i32, ptr %29, align 8
  %31 = getelementptr inbounds nuw %struct._fmt_data, ptr %8, i32 0, i32 1
  %32 = load i32, ptr %31, align 8
  %33 = icmp ne i32 %30, %32
  br i1 %33, label %34, label %38

34:                                               ; preds = %27
  %35 = getelementptr inbounds nuw %struct._fmt_data, ptr %8, i32 0, i32 2
  %36 = load ptr, ptr %35, align 8
  call void @g_free(ptr noundef %36)
  %37 = getelementptr inbounds nuw %struct._fmt_data, ptr %8, i32 0, i32 2
  store ptr null, ptr %37, align 8
  br label %81

38:                                               ; preds = %27
  %39 = load ptr, ptr %5, align 8
  %40 = getelementptr inbounds nuw %struct._fmt_data, ptr %39, i32 0, i32 1
  %41 = load i32, ptr %40, align 8
  %42 = icmp eq i32 %41, 4
  br i1 %42, label %43, label %77

43:                                               ; preds = %38
  %44 = getelementptr inbounds nuw %struct._fmt_data, ptr %8, i32 0, i32 2
  %45 = load ptr, ptr %44, align 8
  %46 = icmp ne ptr %45, null
  br i1 %46, label %47, label %76

47:                                               ; preds = %43
  %48 = load ptr, ptr %5, align 8
  %49 = getelementptr inbounds nuw %struct._fmt_data, ptr %48, i32 0, i32 2
  %50 = load ptr, ptr %49, align 8
  %51 = icmp ne ptr %50, null
  br i1 %51, label %52, label %76

52:                                               ; preds = %47
  %53 = load ptr, ptr %5, align 8
  %54 = getelementptr inbounds nuw %struct._fmt_data, ptr %53, i32 0, i32 2
  %55 = load ptr, ptr %54, align 8
  %56 = getelementptr inbounds nuw %struct._fmt_data, ptr %8, i32 0, i32 2
  %57 = load ptr, ptr %56, align 8
  %58 = call i32 @strcmp(ptr noundef %55, ptr noundef %57) #22
  %59 = icmp ne i32 %58, 0
  br i1 %59, label %60, label %64

60:                                               ; preds = %52
  %61 = getelementptr inbounds nuw %struct._fmt_data, ptr %8, i32 0, i32 2
  %62 = load ptr, ptr %61, align 8
  call void @g_free(ptr noundef %62)
  %63 = getelementptr inbounds nuw %struct._fmt_data, ptr %8, i32 0, i32 2
  store ptr null, ptr %63, align 8
  br label %81

64:                                               ; preds = %52
  %65 = load ptr, ptr %5, align 8
  %66 = getelementptr inbounds nuw %struct._fmt_data, ptr %65, i32 0, i32 3
  %67 = load i32, ptr %66, align 8
  %68 = getelementptr inbounds nuw %struct._fmt_data, ptr %8, i32 0, i32 3
  %69 = load i32, ptr %68, align 8
  %70 = icmp ne i32 %67, %69
  br i1 %70, label %71, label %75

71:                                               ; preds = %64
  %72 = getelementptr inbounds nuw %struct._fmt_data, ptr %8, i32 0, i32 2
  %73 = load ptr, ptr %72, align 8
  call void @g_free(ptr noundef %73)
  %74 = getelementptr inbounds nuw %struct._fmt_data, ptr %8, i32 0, i32 2
  store ptr null, ptr %74, align 8
  br label %81

75:                                               ; preds = %64
  br label %76

76:                                               ; preds = %75, %47, %43
  br label %77

77:                                               ; preds = %76, %38
  %78 = getelementptr inbounds nuw %struct._fmt_data, ptr %8, i32 0, i32 2
  %79 = load ptr, ptr %78, align 8
  call void @g_free(ptr noundef %79)
  %80 = load ptr, ptr %7, align 8
  call void @g_free(ptr noundef %80)
  store i1 false, ptr %3, align 1
  store i32 1, ptr %9, align 4
  br label %86

81:                                               ; preds = %71, %60, %34, %26
  %82 = call ptr @strtok(ptr noundef null, ptr noundef @.str.30) #17
  store ptr %82, ptr %6, align 8
  br label %17, !llvm.loop !60

83:                                               ; preds = %17
  %84 = load ptr, ptr %7, align 8
  call void @g_free(ptr noundef %84)
  br label %85

85:                                               ; preds = %83, %2
  store i1 true, ptr %3, align 1
  store i32 1, ptr %9, align 4
  br label %86

86:                                               ; preds = %85, %77
  call void @llvm.lifetime.end.p0(i64 32, ptr %8) #17
  call void @llvm.lifetime.end.p0(i64 8, ptr %7) #17
  call void @llvm.lifetime.end.p0(i64 8, ptr %6) #17
  %87 = load i1, ptr %3, align 1
  ret i1 %87
}