; Function Attrs: null_pointer_is_valid sspstrong uwtable
define internal fastcc noundef zeroext i1 @prefs_is_column_fmt_visible(ptr noundef %0, ptr noundef readonly captures(none) %1) unnamed_addr #1 {
  %3 = alloca %struct._fmt_data, align 8
  call void @llvm.lifetime.start.p0(i64 32, ptr nonnull %3) #25
  %.not = icmp eq ptr %0, null
  br i1 %.not, label %36, label %4

4:                                                ; preds = %2
  %5 = tail call noalias ptr @g_strdup(ptr noundef nonnull %0)
  %6 = tail call ptr @strtok(ptr noundef %5, ptr noundef nonnull @.str.30) #25
  %.not2126 = icmp eq ptr %6, null
  br i1 %.not2126, label %.sink.split28, label %.lr.ph

.lr.ph:                                           ; preds = %4
  %7 = getelementptr inbounds nuw i8, ptr %1, i64 8
  %8 = getelementptr inbounds nuw i8, ptr %3, i64 8
  %9 = getelementptr inbounds nuw i8, ptr %3, i64 16
  %10 = getelementptr inbounds nuw i8, ptr %1, i64 16
  %11 = getelementptr inbounds nuw i8, ptr %1, i64 24
  %12 = getelementptr inbounds nuw i8, ptr %3, i64 24
  br label %13

13:                                               ; preds = %.lr.ph, %34
  %.01627 = phi ptr [ %6, %.lr.ph ], [ %35, %34 ]
  %14 = call ptr @g_strchug(ptr noundef nonnull %.01627)
  %15 = call ptr @g_strchomp(ptr noundef %14)
  %16 = call zeroext i1 @parse_column_format(ptr noundef nonnull %3, ptr noundef %15)
  br i1 %16, label %17, label %34

17:                                               ; preds = %13
  %18 = load i32, ptr %7, align 8
  %19 = load i32, ptr %8, align 8
  %.not22 = icmp eq i32 %18, %19
  br i1 %.not22, label %22, label %20

20:                                               ; preds = %17
  %21 = load ptr, ptr %9, align 8
  br label %.sink.split

22:                                               ; preds = %17
  %23 = icmp eq i32 %18, 4
  %24 = load ptr, ptr %9, align 8
  %25 = icmp ne ptr %24, null
  %or.cond = select i1 %23, i1 %25, i1 false
  br i1 %or.cond, label %26, label %33

26:                                               ; preds = %22
  %27 = load ptr, ptr %10, align 8
  %.not23 = icmp eq ptr %27, null
  br i1 %.not23, label %33, label %28

28:                                               ; preds = %26
  %29 = call i32 @strcmp(ptr noundef nonnull dereferenceable(1) %27, ptr noundef nonnull dereferenceable(1) %24) #29
  %.not24 = icmp eq i32 %29, 0
  br i1 %.not24, label %30, label %.sink.split

30:                                               ; preds = %28
  %31 = load i32, ptr %11, align 8
  %32 = load i32, ptr %12, align 8
  %.not25 = icmp eq i32 %31, %32
  br i1 %.not25, label %33, label %.sink.split

33:                                               ; preds = %26, %30, %22
  call void @g_free(ptr noundef %24)
  br label %.sink.split28

.sink.split:                                      ; preds = %30, %28, %20
  %.sink = phi ptr [ %21, %20 ], [ %24, %28 ], [ %24, %30 ]
  call void @g_free(ptr noundef %.sink)
  store ptr null, ptr %9, align 8
  br label %34

34:                                               ; preds = %.sink.split, %13
  %35 = call ptr @strtok(ptr noundef null, ptr noundef nonnull @.str.30) #25
  %.not21 = icmp eq ptr %35, null
  br i1 %.not21, label %.sink.split28, label %13, !llvm.loop !63

.sink.split28:                                    ; preds = %34, %4, %33
  %.0.ph = phi i1 [ false, %33 ], [ true, %4 ], [ true, %34 ]
  call void @g_free(ptr noundef %5)
  br label %36

36:                                               ; preds = %.sink.split28, %2
  %.0 = phi i1 [ true, %2 ], [ %.0.ph, %.sink.split28 ]
  call void @llvm.lifetime.end.p0(i64 32, ptr nonnull %3) #25
  ret i1 %.0
}